target datalayout = "e-m:e-p270:32:32-p271:32:32-p272:64:64-i64:64-i128:128-f80:128-n8:16:32:64-S128"
target triple = "x86_64-pc-linux-gnu"

%struct.node_record = type { ptr, ptr, i16, i64, i64, ptr, ptr, ptr, i16, ptr, i16, i16, i32, i32, i64, ptr, i16, i16, ptr, ptr, ptr, ptr, ptr, i64, i64, ptr, ptr, ptr, ptr, i32, ptr, ptr, i64, i64, i32, ptr, i64, ptr, i32, i16, ptr, ptr, i32, ptr, i32, i8, ptr, i32, i16, i16, ptr, i16, i64, i16, i64, ptr, i64, i32, i16, i64, i16, ptr, i16, i64, ptr, i64, i16, i32, i16, ptr, ptr, ptr, i16, i32, i16, i16, i32, ptr, i16, i32 }

@avail_node_bitmap = dso_local global ptr null, align 8
@acct_db_conn = external global ptr, align 8
@.str.84 = private unnamed_addr constant [15 x i8] c"Not responding\00", align 1
@.str.152 = private unnamed_addr constant [40 x i8] c"drain_nodes: node %s state set to DRAIN\00", align 1

; Function Attrs: nounwind uwtable
define internal void @_drain_node(ptr noundef %0, ptr noundef %1, i32 noundef %2) #0 {
  %4 = alloca ptr, align 8
  %5 = alloca ptr, align 8
  %6 = alloca i32, align 4
  %7 = alloca i64, align 8
  %8 = alloca i32, align 4
  store ptr %0, ptr %4, align 8
  store ptr %1, ptr %5, align 8
  store i32 %2, ptr %6, align 4
  call void @llvm.lifetime.start.p0(i64 8, ptr %7) #10
  %9 = call i64 @time(ptr noundef null) #10
  store i64 %9, ptr %7, align 8
  %10 = load ptr, ptr %4, align 8
  %11 = getelementptr inbounds nuw %struct.node_record, ptr %10, i32 0, i32 44
  %12 = load i32, ptr %11, align 8
  %13 = zext i32 %12 to i64
  %14 = and i64 %13, 512
  %15 = icmp ne i64 %14, 0
  br i1 %15, label %16, label %17

16:                                               ; preds = %3
  store i32 1, ptr %8, align 4
  br label %86

17:                                               ; preds = %3
  %18 = load ptr, ptr %4, align 8
  call void @trigger_node_draining(ptr noundef %18)
  %19 = load ptr, ptr %4, align 8
  %20 = getelementptr inbounds nuw %struct.node_record, ptr %19, i32 0, i32 44
  %21 = load i32, ptr %20, align 8
  %22 = zext i32 %21 to i64
  %23 = or i64 %22, 512
  %24 = trunc i64 %23 to i32
  store i32 %24, ptr %20, align 8
  %25 = load ptr, ptr @avail_node_bitmap, align 8
  %26 = load ptr, ptr %4, align 8
  %27 = getelementptr inbounds nuw %struct.node_record, ptr %26, i32 0, i32 29
  %28 = load i32, ptr %27, align 8
  %29 = zext i32 %28 to i64
  call void @bit_clear(ptr noundef %25, i64 noundef %29)
  br label %30

30:                                               ; preds = %17
  br label %31

31:                                               ; preds = %30
  %32 = call i32 @get_log_level()
  %33 = icmp sge i32 %32, 3
  br i1 %33, label %34, label %38

34:                                               ; preds = %31
  %35 = load ptr, ptr %4, align 8
  %36 = getelementptr inbounds nuw %struct.node_record, ptr %35, i32 0, i32 37
  %37 = load ptr, ptr %36, align 8
  call void (i32, ptr, ...) @log_var(i32 noundef 3, ptr noundef @.str.152, ptr noundef %37)
  br label %38

38:                                               ; preds = %34, %31
  br label %39

39:                                               ; preds = %38
  br label %40

40:                                               ; preds = %39
  br label %41

41:                                               ; preds = %40
  br label %42

42:                                               ; preds = %41
  %43 = load ptr, ptr %4, align 8
  %44 = getelementptr inbounds nuw %struct.node_record, ptr %43, i32 0, i32 55
  %45 = load ptr, ptr %44, align 8
  %46 = icmp eq ptr %45, null
  br i1 %46, label %53, label %47

47:                                               ; preds = %42
  %48 = load ptr, ptr %4, align 8
  %49 = getelementptr inbounds nuw %struct.node_record, ptr %48, i32 0, i32 55
  %50 = load ptr, ptr %49, align 8
  %51 = call i32 @xstrncmp(ptr noundef %50, ptr noundef @.str.84, i64 noundef 14)
  %52 = icmp eq i32 %51, 0
  br i1 %52, label %53, label %66

53:                                               ; preds = %47, %42
  %54 = load ptr, ptr %4, align 8
  %55 = getelementptr inbounds nuw %struct.node_record, ptr %54, i32 0, i32 55
  call void @slurm_xfree(ptr noundef %55)
  %56 = load ptr, ptr %5, align 8
  %57 = call ptr @xstrdup(ptr noundef %56)
  %58 = load ptr, ptr %4, align 8
  %59 = getelementptr inbounds nuw %struct.node_record, ptr %58, i32 0, i32 55
  store ptr %57, ptr %59, align 8
  %60 = load i64, ptr %7, align 8
  %61 = load ptr, ptr %4, align 8
  %62 = getelementptr inbounds nuw %struct.node_record, ptr %61, i32 0, i32 56
  store i64 %60, ptr %62, align 8
  %63 = load i32, ptr %6, align 4
  %64 = load ptr, ptr %4, align 8
  %65 = getelementptr inbounds nuw %struct.node_record, ptr %64, i32 0, i32 57
  store i32 %63, ptr %65, align 8
  br label %66

66:                                               ; preds = %53, %47
  %67 = load ptr, ptr %4, align 8
  %68 = getelementptr inbounds nuw %struct.node_record, ptr %67, i32 0, i32 62
  %69 = load i16, ptr %68, align 8
  %70 = zext i16 %69 to i32
  %71 = icmp eq i32 %70, 0
  br i1 %71, label %72, label %85

72:                                               ; preds = %66
  %73 = load ptr, ptr %4, align 8
  %74 = getelementptr inbounds nuw %struct.node_record, ptr %73, i32 0, i32 8
  %75 = load i16, ptr %74, align 8
  %76 = zext i16 %75 to i32
  %77 = icmp eq i32 %76, 0
  br i1 %77, label %78, label %85

78:                                               ; preds = %72
  %79 = load ptr, ptr %4, align 8
  call void @trigger_node_drained(ptr noundef %79)
  %80 = load ptr, ptr @acct_db_conn, align 8
  %81 = load ptr, ptr %4, align 8
  %82 = load i64, ptr %7, align 8
  %83 = load i32, ptr %6, align 4
  %84 = call i32 @clusteracct_storage_g_node_down(ptr noundef %80, ptr noundef %81, i64 noundef %82, ptr noundef null, i32 noundef %83)
  br label %85

85:                                               ; preds = %78, %72, %66
  store i32 0, ptr %8, align 4
  br label %86

86:                                               ; preds = %85, %16
  call void @llvm.lifetime.end.p0(i64 8, ptr %7) #10
  %87 = load i32, ptr %8, align 4
  switch i32 %87, label %89 [
    i32 0, label %88
    i32 1, label %88
  ]

88:                                               ; preds = %86, %86
  ret void

89:                                               ; preds = %86
  unreachable
}