; Function Attrs: nounwind uwtable
define internal fastcc void @_drain_node(ptr noundef nonnull %0, ptr noundef %1, i32 noundef %2) unnamed_addr #0 {
  %4 = tail call i64 @time(ptr noundef null) #15
  %5 = getelementptr inbounds nuw i8, ptr %0, i64 320
  %6 = load i32, ptr %5, align 8
  %7 = and i32 %6, 512
  %.not = icmp eq i32 %7, 0
  br i1 %.not, label %8, label %42

8:                                                ; preds = %3
  tail call void @trigger_node_draining(ptr noundef nonnull %0) #15
  %9 = load i32, ptr %5, align 8
  %10 = or i32 %9, 512
  store i32 %10, ptr %5, align 8
  %11 = load ptr, ptr @avail_node_bitmap, align 8
  %12 = getelementptr inbounds nuw i8, ptr %0, i64 208
  %13 = load i32, ptr %12, align 8
  %14 = zext i32 %13 to i64
  tail call void @bit_clear(ptr noundef %11, i64 noundef %14) #15
  %15 = tail call i32 @get_log_level() #15
  %16 = icmp sgt i32 %15, 2
  br i1 %16, label %17, label %20

17:                                               ; preds = %8
  %18 = getelementptr inbounds nuw i8, ptr %0, i64 272
  %19 = load ptr, ptr %18, align 8
  tail call void (i32, ptr, ...) @log_var(i32 noundef 3, ptr noundef nonnull @.str.152, ptr noundef %19) #15
  br label %20

20:                                               ; preds = %17, %8
  %21 = getelementptr inbounds nuw i8, ptr %0, i64 384
  %22 = load ptr, ptr %21, align 8
  %23 = icmp eq ptr %22, null
  br i1 %23, label %27, label %24

24:                                               ; preds = %20
  %25 = tail call i32 @xstrncmp(ptr noundef nonnull %22, ptr noundef nonnull @.str.84, i64 noundef 14) #15
  %26 = icmp eq i32 %25, 0
  br i1 %26, label %27, label %31

27:                                               ; preds = %24, %20
  tail call void @slurm_xfree(ptr noundef nonnull %21) #15
  %28 = tail call ptr @xstrdup(ptr noundef %1) #15
  store ptr %28, ptr %21, align 8
  %29 = getelementptr inbounds nuw i8, ptr %0, i64 392
  store i64 %4, ptr %29, align 8
  %30 = getelementptr inbounds nuw i8, ptr %0, i64 400
  store i32 %2, ptr %30, align 8
  br label %31

31:                                               ; preds = %27, %24
  %32 = getelementptr inbounds nuw i8, ptr %0, i64 432
  %33 = load i16, ptr %32, align 8
  %34 = icmp eq i16 %33, 0
  br i1 %34, label %35, label %42

35:                                               ; preds = %31
  %36 = getelementptr inbounds nuw i8, ptr %0, i64 64
  %37 = load i16, ptr %36, align 8
  %38 = icmp eq i16 %37, 0
  br i1 %38, label %39, label %42

39:                                               ; preds = %35
  tail call void @trigger_node_drained(ptr noundef nonnull %0) #15
  %40 = load ptr, ptr @acct_db_conn, align 8
  %41 = tail call i32 @clusteracct_storage_g_node_down(ptr noundef %40, ptr noundef nonnull %0, i64 noundef %4, ptr noundef null, i32 noundef %2) #15
  br label %42

42:                                               ; preds = %31, %35, %39, %3
  ret void
}